Certificate:
    Data:
        Version: 3 (0x2)
        Serial Number: 5 (0x5)
    Signature Algorithm: sha256WithRSAEncryption
        Issuer: C=FR, ST=ISERE, L=Grenoble, O=Schneider-Electric, OU=WRA, CN=Schneider-Electric CA/name=EasyRSA/emailAddress=support@schneider-electric.com
        Validity
            Not Before: Mar  7 15:30:28 2016 GMT
            Not After : Mar  5 15:30:28 2026 GMT
        Subject: C=FR, ST=ISERE, L=Grenoble, O=Schneider-Electric, OU=WRA, CN=clientSouth/name=EasyRSA/emailAddress=support@schneider-electric.com
        Subject Public Key Info:
            Public Key Algorithm: rsaEncryption
                Public-Key: (2048 bit)
                Modulus:
                    00:d4:1a:cc:08:5b:8c:ab:be:bc:15:9e:ce:0b:4a:
                    c1:90:96:63:60:fc:c6:4c:ee:ea:08:51:40:ff:55:
                    f9:fb:c8:2d:20:a0:eb:73:4f:29:23:64:24:cd:fe:
                    10:73:85:07:22:5b:f5:74:4b:72:21:66:ad:a3:48:
                    ee:c7:7a:f3:4c:b2:da:3f:d3:fe:40:5a:46:f3:6e:
                    ce:0a:8b:ab:b8:6f:ac:53:61:d6:2c:ad:99:03:38:
                    42:46:ea:54:99:d1:f5:8f:d3:70:8b:54:6c:16:63:
                    52:1e:87:ee:4f:8a:f7:a6:6b:ac:ac:87:e7:4c:2b:
                    99:34:2c:d0:4e:2d:f7:0c:0c:4a:c6:01:0f:16:e6:
                    e1:b6:53:98:2f:48:fa:d9:22:52:f0:a9:cb:18:cc:
                    62:f5:cb:51:0b:a7:25:6c:65:3c:04:64:4b:c6:61:
                    53:9d:0e:c8:c5:9a:f1:61:3b:84:46:ea:dc:a7:d8:
                    75:67:f7:ec:2e:3a:26:5f:a0:9b:c0:90:06:a5:10:
                    da:2c:b1:18:98:42:c9:eb:bd:62:c2:3d:04:80:6a:
                    aa:af:ad:fc:78:44:9b:b8:0b:11:a8:9c:3b:96:26:
                    e3:1a:e2:d2:bb:71:ac:27:cd:6e:06:d5:36:c5:b4:
                    14:47:11:94:35:53:12:69:7f:13:1a:71:a3:d9:27:
                    89:29
                Exponent: 65537 (0x10001)
        X509v3 extensions:
            X509v3 Basic Constraints: 
                CA:FALSE
            Netscape Comment: 
                Easy-RSA Generated Certificate
            X509v3 Subject Key Identifier: 
                08:09:38:25:7A:9F:50:40:C9:44:01:AC:80:E4:41:20:4E:FB:D3:71
            X509v3 Authority Key Identifier: 
                keyid:FC:82:58:A1:C4:FE:3E:5E:BC:53:96:C8:47:45:1B:82:7B:73:2A:30
                DirName:/C=FR/ST=ISERE/L=Grenoble/O=Schneider-Electric/OU=WRA/CN=Schneider-Electric CA/name=EasyRSA/emailAddress=support@schneider-electric.com
                serial:8C:9E:22:0B:AA:86:7C:60

            X509v3 Extended Key Usage: 
                TLS Web Client Authentication
            X509v3 Key Usage: 
                Digital Signature
            X509v3 Subject Alternative Name: 
                DNS:clientSouth
    Signature Algorithm: sha256WithRSAEncryption
         10:6e:28:f8:28:bb:5b:d2:b0:61:b0:e6:e7:ab:68:e7:1c:75:
         1a:52:cf:cf:b3:f8:d1:f2:02:fb:06:e6:59:cd:8b:2d:7e:8a:
         d4:dc:04:ff:f3:6c:26:93:3d:dc:f3:fb:bf:45:7d:df:f1:f1:
         6b:29:c4:e8:2b:a9:82:92:a9:dc:bd:d4:a1:93:61:75:34:20:
         a7:79:87:b4:84:71:04:0c:d3:c0:7d:16:ac:c8:6c:01:9f:ae:
         c9:53:e7:c4:26:52:3c:7b:39:bd:13:74:00:65:0e:1b:0c:5b:
         e9:c9:70:72:1d:93:ad:8c:f5:a5:55:ec:cf:eb:08:de:05:d0:
         d5:bb:7d:14:8f:65:b3:62:1d:5b:27:cd:1d:16:fd:e8:33:20:
         df:76:9b:ed:af:17:4c:3d:49:6a:bb:cd:7d:19:b7:a3:b7:b0:
         bf:0a:16:aa:cd:e8:c1:05:77:9d:24:78:a9:0d:f7:5d:f5:a9:
         79:aa:fe:64:91:ba:51:9c:1c:8d:f5:c0:7f:e0:e8:ff:b6:ec:
         34:a4:96:d3:62:5f:91:4e:b9:cc:69:90:b9:31:7e:0d:62:45:
         67:31:5f:55:0a:c0:10:08:a5:8b:09:71:88:35:73:e1:88:86:
         48:23:74:0c:69:a5:ed:b8:44:2f:c5:6c:3c:33:2a:24:0a:ac:
         db:bf:85:4a
-----BEGIN CERTIFICATE-----
MIIFeDCCBGCgAwIBAgIBBTANBgkqhkiG9w0BAQsFADCBvDELMAkGA1UEBhMCRlIx
DjAMBgNVBAgTBUlTRVJFMREwDwYDVQQHEwhHcmVub2JsZTEbMBkGA1UEChMSU2No
bmVpZGVyLUVsZWN0cmljMQwwCgYDVQQLEwNXUkExHjAcBgNVBAMTFVNjaG5laWRl
ci1FbGVjdHJpYyBDQTEQMA4GA1UEKRMHRWFzeVJTQTEtMCsGCSqGSIb3DQEJARYe
c3VwcG9ydEBzY2huZWlkZXItZWxlY3RyaWMuY29tMB4XDTE2MDMwNzE1MzAyOFoX
DTI2MDMwNTE1MzAyOFowgbIxCzAJBgNVBAYTAkZSMQ4wDAYDVQQIEwVJU0VSRTER
MA8GA1UEBxMIR3Jlbm9ibGUxGzAZBgNVBAoTElNjaG5laWRlci1FbGVjdHJpYzEM
MAoGA1UECxMDV1JBMRQwEgYDVQQDEwtjbGllbnRTb3V0aDEQMA4GA1UEKRMHRWFz
eVJTQTEtMCsGCSqGSIb3DQEJARYec3VwcG9ydEBzY2huZWlkZXItZWxlY3RyaWMu
Y29tMIIBIjANBgkqhkiG9w0BAQEFAAOCAQ8AMIIBCgKCAQEA1BrMCFuMq768FZ7O
C0rBkJZjYPzGTO7qCFFA/1X5+8gtIKDrc08pI2Qkzf4Qc4UHIlv1dEtyIWato0ju
x3rzTLLaP9P+QFpG827OCouruG+sU2HWLK2ZAzhCRupUmdH1j9Nwi1RsFmNSHofu
T4r3pmusrIfnTCuZNCzQTi33DAxKxgEPFubhtlOYL0j62SJS8KnLGMxi9ctRC6cl
bGU8BGRLxmFTnQ7IxZrxYTuERurcp9h1Z/fsLjomX6CbwJAGpRDaLLEYmELJ671i
wj0EgGqqr638eESbuAsRqJw7libjGuLSu3GsJ81uBtU2xbQURxGUNVMSaX8TGnGj
2SeJKQIDAQABo4IBizCCAYcwCQYDVR0TBAIwADAtBglghkgBhvhCAQ0EIBYeRWFz
eS1SU0EgR2VuZXJhdGVkIENlcnRpZmljYXRlMB0GA1UdDgQWBBQICTglep9QQMlE
AayA5EEgTvvTcTCB8QYDVR0jBIHpMIHmgBT8glihxP4+XrxTlshHRRuCe3MqMKGB
wqSBvzCBvDELMAkGA1UEBhMCRlIxDjAMBgNVBAgTBUlTRVJFMREwDwYDVQQHEwhH
cmVub2JsZTEbMBkGA1UEChMSU2NobmVpZGVyLUVsZWN0cmljMQwwCgYDVQQLEwNX
UkExHjAcBgNVBAMTFVNjaG5laWRlci1FbGVjdHJpYyBDQTEQMA4GA1UEKRMHRWFz
eVJTQTEtMCsGCSqGSIb3DQEJARYec3VwcG9ydEBzY2huZWlkZXItZWxlY3RyaWMu
Y29tggkAjJ4iC6qGfGAwEwYDVR0lBAwwCgYIKwYBBQUHAwIwCwYDVR0PBAQDAgeA
MBYGA1UdEQQPMA2CC2NsaWVudFNvdXRoMA0GCSqGSIb3DQEBCwUAA4IBAQAQbij4
KLtb0rBhsObnq2jnHHUaUs/Ps/jR8gL7BuZZzYstforU3AT/82wmkz3c8/u/RX3f
8fFrKcToK6mCkqncvdShk2F1NCCneYe0hHEEDNPAfRasyGwBn67JU+fEJlI8ezm9
E3QAZQ4bDFvpyXByHZOtjPWlVezP6wjeBdDVu30Uj2WzYh1bJ80dFv3oMyDfdpvt
rxdMPUlqu819Gbejt7C/ChaqzejBBXedJHipDfdd9al5qv5kkbpRnByN9cB/4Oj/
tuw0pJbTYl+RTrnMaZC5MX4NYkVnMV9VCsAQCKWLCXGINXPhiIZII3QMaaXtuEQv
xWw8MyokCqzbv4VK
-----END CERTIFICATE-----
